target datalayout = "e-m:e-p270:32:32-p271:32:32-p272:64:64-i64:64-i128:128-f80:128-n8:16:32:64-S128"
target triple = "x86_64-pc-linux-gnu"

%"class.icu_77::LocalePriorityList" = type { ptr, i32, i32, i8, ptr }
%"struct.icu_77::LocaleAndWeightArray" = type { %"class.icu_77::MaybeStackArray.0" }
%"class.icu_77::MaybeStackArray.0" = type { ptr, i32, i8, [20 x %"struct.icu_77::(anonymous namespace)::LocaleAndWeight"] }
%"struct.icu_77::(anonymous namespace)::LocaleAndWeight" = type { ptr, i32, i32 }

; Function Attrs: mustprogress uwtable
define internal void @_ZN6icu_7715MaybeStackArrayINS_12_GLOBAL__N_115LocaleAndWeightELi20EE12releaseArrayEv(ptr noundef nonnull align 8 dereferenceable(336) %0) #1 align 2 {
  %2 = alloca ptr, align 8
  store ptr %0, ptr %2, align 8, !tbaa !69
  %3 = load ptr, ptr %2, align 8
  %4 = getelementptr inbounds nuw %"class.icu_77::MaybeStackArray.0", ptr %3, i32 0, i32 2
  %5 = load i8, ptr %4, align 4, !tbaa !80
  %6 = icmp ne i8 %5, 0
  br i1 %6, label %7, label %10

7:                                                ; preds = %1
  %8 = getelementptr inbounds nuw %"class.icu_77::MaybeStackArray.0", ptr %3, i32 0, i32 0
  %9 = load ptr, ptr %8, align 8, !tbaa !71
  call void @uprv_free_77(ptr noundef %9)
  br label %10

10:                                               ; preds = %7, %1
  ret void
}

; Function Attrs: mustprogress nounwind uwtable
define internal void @_ZN6icu_7715MaybeStackArrayINS_12_GLOBAL__N_115LocaleAndWeightELi20EED2Ev(ptr noundef nonnull align 8 dereferenceable(336) %0) unnamed_addr #0 align 2 personality ptr @__gxx_personality_v0 {
  %2 = alloca ptr, align 8
  store ptr %0, ptr %2, align 8, !tbaa !69
  %3 = load ptr, ptr %2, align 8
  invoke void @_ZN6icu_7715MaybeStackArrayINS_12_GLOBAL__N_115LocaleAndWeightELi20EE12releaseArrayEv(ptr noundef nonnull align 8 dereferenceable(336) %3)
          to label %4 unwind label %5

4:                                                ; preds = %1
  ret void

5:                                                ; preds = %1
  %6 = landingpad { ptr, i32 }
          catch ptr null
  %7 = extractvalue { ptr, i32 } %6, 0
  call void @__clang_call_terminate(ptr %7) #13
  unreachable
}

; Function Attrs: inlinehint mustprogress nounwind uwtable
define linkonce_odr void @_ZN6icu_7720LocaleAndWeightArrayD2Ev(ptr noundef nonnull align 8 dereferenceable(336) %0) unnamed_addr #2 comdat align 2 {
  %2 = alloca ptr, align 8
  store ptr %0, ptr %2, align 8, !tbaa !37
  %3 = load ptr, ptr %2, align 8
  %4 = getelementptr inbounds nuw %"struct.icu_77::LocaleAndWeightArray", ptr %3, i32 0, i32 0
  call void @_ZN6icu_7715MaybeStackArrayINS_12_GLOBAL__N_115LocaleAndWeightELi20EED2Ev(ptr noundef nonnull align 8 dereferenceable(336) %4) #11
  ret void
}

; Function Attrs: mustprogress nounwind uwtable
define internal noundef nonnull align 8 dereferenceable(16) ptr @_ZN6icu_7715MaybeStackArrayINS_12_GLOBAL__N_115LocaleAndWeightELi20EEixEl(ptr noundef nonnull align 8 dereferenceable(336) %0, i64 noundef %1) #0 align 2 {
  %3 = alloca ptr, align 8
  %4 = alloca i64, align 8
  store ptr %0, ptr %3, align 8, !tbaa !69
  store i64 %1, ptr %4, align 8, !tbaa !18
  %5 = load ptr, ptr %3, align 8
  %6 = getelementptr inbounds nuw %"class.icu_77::MaybeStackArray.0", ptr %5, i32 0, i32 0
  %7 = load ptr, ptr %6, align 8, !tbaa !71
  %8 = load i64, ptr %4, align 8, !tbaa !18
  %9 = getelementptr inbounds %"struct.icu_77::(anonymous namespace)::LocaleAndWeight", ptr %7, i64 %8
  ret ptr %9
}

; Function Attrs: mustprogress nounwind uwtable
define void @_ZN6icu_7718LocalePriorityListD2Ev(ptr noundef nonnull align 8 dereferenceable(32) %0) unnamed_addr #0 align 2 personality ptr @__gxx_personality_v0 {
  %2 = alloca ptr, align 8
  %3 = alloca i32, align 4
  store ptr %0, ptr %2, align 8, !tbaa !23
  %4 = load ptr, ptr %2, align 8
  %5 = getelementptr inbounds nuw %"class.icu_77::LocalePriorityList", ptr %4, i32 0, i32 0
  %6 = load ptr, ptr %5, align 8, !tbaa !25
  %7 = icmp ne ptr %6, null
  br i1 %7, label %8, label %40

8:                                                ; preds = %1
  call void @llvm.lifetime.start.p0(i64 4, ptr %3) #11
  store i32 0, ptr %3, align 4, !tbaa !14
  br label %9

9:                                                ; preds = %31, %8
  %10 = load i32, ptr %3, align 4, !tbaa !14
  %11 = getelementptr inbounds nuw %"class.icu_77::LocalePriorityList", ptr %4, i32 0, i32 1
  %12 = load i32, ptr %11, align 8, !tbaa !30
  %13 = icmp slt i32 %10, %12
  br i1 %13, label %15, label %14

14:                                               ; preds = %9
  call void @llvm.lifetime.end.p0(i64 4, ptr %3) #11
  br label %34

15:                                               ; preds = %9
  %16 = getelementptr inbounds nuw %"class.icu_77::LocalePriorityList", ptr %4, i32 0, i32 0
  %17 = load ptr, ptr %16, align 8, !tbaa !25
  %18 = getelementptr inbounds nuw %"struct.icu_77::LocaleAndWeightArray", ptr %17, i32 0, i32 0
  %19 = load i32, ptr %3, align 4, !tbaa !14
  %20 = sext i32 %19 to i64
  %21 = invoke noundef nonnull align 8 dereferenceable(16) ptr @_ZN6icu_7715MaybeStackArrayINS_12_GLOBAL__N_115LocaleAndWeightELi20EEixEl(ptr noundef nonnull align 8 dereferenceable(336) %18, i64 noundef %20)
          to label %22 unwind label %44

22:                                               ; preds = %15
  %23 = getelementptr inbounds nuw %"struct.icu_77::(anonymous namespace)::LocaleAndWeight", ptr %21, i32 0, i32 0
  %24 = load ptr, ptr %23, align 8, !tbaa !60
  %25 = icmp eq ptr %24, null
  br i1 %25, label %30, label %26

26:                                               ; preds = %22
  %27 = load ptr, ptr %24, align 8, !tbaa !66
  %28 = getelementptr inbounds ptr, ptr %27, i64 1
  %29 = load ptr, ptr %28, align 8
  call void %29(ptr noundef nonnull align 8 dereferenceable(217) %24) #11
  br label %30

30:                                               ; preds = %26, %22
  br label %31

31:                                               ; preds = %30
  %32 = load i32, ptr %3, align 4, !tbaa !14
  %33 = add nsw i32 %32, 1
  store i32 %33, ptr %3, align 4, !tbaa !14
  br label %9, !llvm.loop !68

34:                                               ; preds = %14
  %35 = getelementptr inbounds nuw %"class.icu_77::LocalePriorityList", ptr %4, i32 0, i32 0
  %36 = load ptr, ptr %35, align 8, !tbaa !25
  %37 = icmp eq ptr %36, null
  br i1 %37, label %39, label %38

38:                                               ; preds = %34
  call void @_ZN6icu_7720LocaleAndWeightArrayD2Ev(ptr noundef nonnull align 8 dereferenceable(336) %36) #11
  call void @_ZN6icu_777UMemorydlEPv(ptr noundef %36) #11
  br label %39

39:                                               ; preds = %38, %34
  br label %40

40:                                               ; preds = %39, %1
  %41 = getelementptr inbounds nuw %"class.icu_77::LocalePriorityList", ptr %4, i32 0, i32 4
  %42 = load ptr, ptr %41, align 8, !tbaa !33
  invoke void @uhash_close_77(ptr noundef %42)
          to label %43 unwind label %44

43:                                               ; preds = %40
  ret void

44:                                               ; preds = %40, %15
  %45 = landingpad { ptr, i32 }
          catch ptr null
  %46 = extractvalue { ptr, i32 } %45, 0
  call void @__clang_call_terminate(ptr %46) #13
  unreachable
}