; Function Attrs: mustprogress nounwind uwtable
define void @_ZN6icu_7718LocalePriorityListD2Ev(ptr noundef nonnull readonly align 8 captures(none) dereferenceable(32) %0) unnamed_addr #0 align 2 personality ptr @__gxx_personality_v0 {
  %2 = load ptr, ptr %0, align 8, !tbaa !20
  %.not = icmp eq ptr %2, null
  br i1 %.not, label %26, label %.preheader

.preheader:                                       ; preds = %1
  %3 = getelementptr inbounds nuw i8, ptr %0, i64 8
  %4 = load i32, ptr %3, align 8, !tbaa !36
  %5 = icmp sgt i32 %4, 0
  br i1 %5, label %.lr.ph, label %._crit_edge.thread

._crit_edge:                                      ; preds = %16
  %.pre7 = load ptr, ptr %0, align 8, !tbaa !20
  %6 = icmp eq ptr %.pre7, null
  br i1 %6, label %26, label %._crit_edge.thread

.lr.ph:                                           ; preds = %.preheader, %16
  %7 = phi i32 [ %17, %16 ], [ %4, %.preheader ]
  %indvars.iv = phi i64 [ %indvars.iv.next, %16 ], [ 0, %.preheader ]
  %8 = load ptr, ptr %0, align 8, !tbaa !20
  %.val = load ptr, ptr %8, align 8, !tbaa !21
  %9 = getelementptr inbounds nuw %"struct.icu_77::(anonymous namespace)::LocaleAndWeight", ptr %.val, i64 %indvars.iv
  %10 = load ptr, ptr %9, align 8, !tbaa !42
  %11 = icmp eq ptr %10, null
  br i1 %11, label %16, label %12

12:                                               ; preds = %.lr.ph
  %13 = load ptr, ptr %10, align 8, !tbaa !48
  %14 = getelementptr inbounds nuw i8, ptr %13, i64 8
  %15 = load ptr, ptr %14, align 8
  tail call void %15(ptr noundef nonnull align 8 dereferenceable(217) %10) #17
  %.pre = load i32, ptr %3, align 8, !tbaa !36
  br label %16

16:                                               ; preds = %.lr.ph, %12
  %17 = phi i32 [ %7, %.lr.ph ], [ %.pre, %12 ]
  %indvars.iv.next = add nuw nsw i64 %indvars.iv, 1
  %18 = sext i32 %17 to i64
  %19 = icmp slt i64 %indvars.iv.next, %18
  br i1 %19, label %.lr.ph, label %._crit_edge, !llvm.loop !50

._crit_edge.thread:                               ; preds = %.preheader, %._crit_edge
  %20 = phi ptr [ %.pre7, %._crit_edge ], [ %2, %.preheader ]
  %21 = getelementptr inbounds nuw i8, ptr %20, i64 12
  %.val1.i = load i8, ptr %21, align 4, !tbaa !46
  %.not.i.i.i = icmp eq i8 %.val1.i, 0
  br i1 %.not.i.i.i, label %_ZN6icu_7720LocaleAndWeightArrayD2Ev.exit, label %22

22:                                               ; preds = %._crit_edge.thread
  %.val.i = load ptr, ptr %20, align 8
  invoke void @uprv_free_77(ptr noundef %.val.i)
          to label %_ZN6icu_7720LocaleAndWeightArrayD2Ev.exit unwind label %23

23:                                               ; preds = %22
  %24 = landingpad { ptr, i32 }
          catch ptr null
  %25 = extractvalue { ptr, i32 } %24, 0
  tail call void @__clang_call_terminate(ptr %25) #19
  unreachable

_ZN6icu_7720LocaleAndWeightArrayD2Ev.exit:        ; preds = %._crit_edge.thread, %22
  tail call void @_ZN6icu_777UMemorydlEPv(ptr noundef nonnull %20) #17
  br label %26

26:                                               ; preds = %._crit_edge, %_ZN6icu_7720LocaleAndWeightArrayD2Ev.exit, %1
  %27 = getelementptr inbounds nuw i8, ptr %0, i64 24
  %28 = load ptr, ptr %27, align 8, !tbaa !15
  invoke void @uhash_close_77(ptr noundef %28)
          to label %29 unwind label %30

29:                                               ; preds = %26
  ret void

30:                                               ; preds = %26
  %31 = landingpad { ptr, i32 }
          catch ptr null
  %32 = extractvalue { ptr, i32 } %31, 0
  tail call void @__clang_call_terminate(ptr %32) #19
  unreachable
}